target datalayout = "e-m:e-p270:32:32-p271:32:32-p272:64:64-i64:64-i128:128-f80:128-n8:16:32:64-S128"
target triple = "x86_64-unknown-linux-gnu"

%"class.v8::LocalBase.3" = type { %"class.v8::IndirectHandleBase" }
%"class.v8::IndirectHandleBase" = type { ptr }
%"class.v8::Local.2" = type { %"class.v8::LocalBase.3" }
%"struct.node::IsolateSettings" = type { i64, i32, ptr, ptr, ptr, ptr, ptr, ptr }

; Function Attrs: mustprogress nounwind uwtable
define dso_local void @_ZN4node23SetIsolateErrorHandlersEPN2v87IsolateERKNS_15IsolateSettingsE(ptr noundef %isolate, ptr noundef nonnull align 8 dereferenceable(64) %s) #4 {
entry:
  %this.addr.i23 = alloca ptr, align 8
  %this.addr.i21 = alloca ptr, align 8
  %this.addr.i = alloca ptr, align 8
  %isolate.addr = alloca ptr, align 8
  %s.addr = alloca ptr, align 8
  %agg.tmp = alloca %"class.v8::Local.2", align 8
  %abort_callback = alloca ptr, align 8
  %fatal_error_cb = alloca ptr, align 8
  %prepare_stack_trace_cb = alloca ptr, align 8
  store ptr %isolate, ptr %isolate.addr, align 8
  store ptr %s, ptr %s.addr, align 8
  %0 = load ptr, ptr %s.addr, align 8
  %flags = getelementptr inbounds %"struct.node::IsolateSettings", ptr %0, i32 0, i32 0
  %1 = load i64, ptr %flags, align 8
  %and = and i64 %1, 1
  %tobool = icmp ne i64 %and, 0
  br i1 %tobool, label %if.then, label %if.end

if.then:                                          ; preds = %entry
  %2 = load ptr, ptr %isolate.addr, align 8
  call void @llvm.memset.p0.i64(ptr align 8 %agg.tmp, i8 0, i64 8, i1 false)
  store ptr %agg.tmp, ptr %this.addr.i, align 8
  %this1.i = load ptr, ptr %this.addr.i, align 8
  store ptr %this1.i, ptr %this.addr.i21, align 8
  %this1.i22 = load ptr, ptr %this.addr.i21, align 8
  store ptr %this1.i22, ptr %this.addr.i23, align 8
  %this1.i24 = load ptr, ptr %this.addr.i23, align 8
  store ptr null, ptr %this1.i24, align 8
  %coerce.dive = getelementptr inbounds %"class.v8::Local.2", ptr %agg.tmp, i32 0, i32 0
  %coerce.dive1 = getelementptr inbounds %"class.v8::LocalBase.3", ptr %coerce.dive, i32 0, i32 0
  %coerce.dive2 = getelementptr inbounds %"class.v8::IndirectHandleBase", ptr %coerce.dive1, i32 0, i32 0
  %3 = load ptr, ptr %coerce.dive2, align 8
  %call = call noundef zeroext i1 @_ZN2v87Isolate32AddMessageListenerWithErrorLevelEPFvNS_5LocalINS_7MessageEEENS1_INS_5ValueEEEEiS5_(ptr noundef nonnull align 1 dereferenceable(1) %2, ptr noundef @_ZN4node6errors25PerIsolateMessageListenerEN2v85LocalINS1_7MessageEEENS2_INS1_5ValueEEE, i32 noundef 24, ptr %3)
  br label %if.end

if.end:                                           ; preds = %if.then, %entry
  %4 = load ptr, ptr %s.addr, align 8
  %should_abort_on_uncaught_exception_callback = getelementptr inbounds %"struct.node::IsolateSettings", ptr %4, i32 0, i32 2
  %5 = load ptr, ptr %should_abort_on_uncaught_exception_callback, align 8
  %tobool3 = icmp ne ptr %5, null
  br i1 %tobool3, label %cond.true, label %cond.false

cond.true:                                        ; preds = %if.end
  %6 = load ptr, ptr %s.addr, align 8
  %should_abort_on_uncaught_exception_callback4 = getelementptr inbounds %"struct.node::IsolateSettings", ptr %6, i32 0, i32 2
  %7 = load ptr, ptr %should_abort_on_uncaught_exception_callback4, align 8
  br label %cond.end

cond.false:                                       ; preds = %if.end
  br label %cond.end

cond.end:                                         ; preds = %cond.false, %cond.true
  %cond = phi ptr [ %7, %cond.true ], [ @_ZN4node30ShouldAbortOnUncaughtExceptionEPN2v87IsolateE, %cond.false ]
  store ptr %cond, ptr %abort_callback, align 8
  %8 = load ptr, ptr %isolate.addr, align 8
  %9 = load ptr, ptr %abort_callback, align 8
  call void @_ZN2v87Isolate35SetAbortOnUncaughtExceptionCallbackEPFbPS0_E(ptr noundef nonnull align 1 dereferenceable(1) %8, ptr noundef %9)
  %10 = load ptr, ptr %s.addr, align 8
  %fatal_error_callback = getelementptr inbounds %"struct.node::IsolateSettings", ptr %10, i32 0, i32 3
  %11 = load ptr, ptr %fatal_error_callback, align 8
  %tobool5 = icmp ne ptr %11, null
  br i1 %tobool5, label %cond.true6, label %cond.false8

cond.true6:                                       ; preds = %cond.end
  %12 = load ptr, ptr %s.addr, align 8
  %fatal_error_callback7 = getelementptr inbounds %"struct.node::IsolateSettings", ptr %12, i32 0, i32 3
  %13 = load ptr, ptr %fatal_error_callback7, align 8
  br label %cond.end9

cond.false8:                                      ; preds = %cond.end
  br label %cond.end9

cond.end9:                                        ; preds = %cond.false8, %cond.true6
  %cond10 = phi ptr [ %13, %cond.true6 ], [ @_ZN4node12OnFatalErrorEPKcS1_, %cond.false8 ]
  store ptr %cond10, ptr %fatal_error_cb, align 8
  %14 = load ptr, ptr %isolate.addr, align 8
  %15 = load ptr, ptr %fatal_error_cb, align 8
  call void @_ZN2v87Isolate20SetFatalErrorHandlerEPFvPKcS2_E(ptr noundef nonnull align 1 dereferenceable(1) %14, ptr noundef %15)
  %16 = load ptr, ptr %isolate.addr, align 8
  call void @_ZN2v87Isolate18SetOOMErrorHandlerEPFvPKcRKNS_10OOMDetailsEE(ptr noundef nonnull align 1 dereferenceable(1) %16, ptr noundef @_ZN4node15OOMErrorHandlerEPKcRKN2v810OOMDetailsE)
  %17 = load ptr, ptr %s.addr, align 8
  %flags11 = getelementptr inbounds %"struct.node::IsolateSettings", ptr %17, i32 0, i32 0
  %18 = load i64, ptr %flags11, align 8
  %and12 = and i64 %18, 8
  %cmp = icmp eq i64 %and12, 0
  br i1 %cmp, label %if.then13, label %if.end20

if.then13:                                        ; preds = %cond.end9
  %19 = load ptr, ptr %s.addr, align 8
  %prepare_stack_trace_callback = getelementptr inbounds %"struct.node::IsolateSettings", ptr %19, i32 0, i32 4
  %20 = load ptr, ptr %prepare_stack_trace_callback, align 8
  %tobool14 = icmp ne ptr %20, null
  br i1 %tobool14, label %cond.true15, label %cond.false17

cond.true15:                                      ; preds = %if.then13
  %21 = load ptr, ptr %s.addr, align 8
  %prepare_stack_trace_callback16 = getelementptr inbounds %"struct.node::IsolateSettings", ptr %21, i32 0, i32 4
  %22 = load ptr, ptr %prepare_stack_trace_callback16, align 8
  br label %cond.end18

cond.false17:                                     ; preds = %if.then13
  br label %cond.end18

cond.end18:                                       ; preds = %cond.false17, %cond.true15
  %cond19 = phi ptr [ %22, %cond.true15 ], [ @_ZN4node25PrepareStackTraceCallbackEN2v85LocalINS0_7ContextEEENS1_INS0_5ValueEEENS1_INS0_5ArrayEEE, %cond.false17 ]
  store ptr %cond19, ptr %prepare_stack_trace_cb, align 8
  %23 = load ptr, ptr %isolate.addr, align 8
  %24 = load ptr, ptr %prepare_stack_trace_cb, align 8
  call void @_ZN2v87Isolate28SetPrepareStackTraceCallbackEPFNS_10MaybeLocalINS_5ValueEEENS_5LocalINS_7ContextEEENS4_IS2_EENS4_INS_5ArrayEEEE(ptr noundef nonnull align 1 dereferenceable(1) %23, ptr noundef %24)
  br label %if.end20

if.end20:                                         ; preds = %cond.end18, %cond.end9
  ret void
}