; Function Attrs: mustprogress nounwind uwtable
define dso_local void @_ZN4node23SetIsolateErrorHandlersEPN2v87IsolateERKNS_15IsolateSettingsE(ptr noundef %isolate, ptr nocapture noundef nonnull readonly align 8 dereferenceable(64) %s) local_unnamed_addr #3 {
entry:
  %0 = load i64, ptr %s, align 8
  %and = and i64 %0, 1
  %tobool.not = icmp eq i64 %and, 0
  br i1 %tobool.not, label %if.end, label %if.then

if.then:                                          ; preds = %entry
  %call = tail call noundef zeroext i1 @_ZN2v87Isolate32AddMessageListenerWithErrorLevelEPFvNS_5LocalINS_7MessageEEENS1_INS_5ValueEEEEiS5_(ptr noundef nonnull align 1 dereferenceable(1) %isolate, ptr noundef nonnull @_ZN4node6errors25PerIsolateMessageListenerEN2v85LocalINS1_7MessageEEENS2_INS1_5ValueEEE, i32 noundef 24, ptr null) #12
  br label %if.end

if.end:                                           ; preds = %if.then, %entry
  %should_abort_on_uncaught_exception_callback = getelementptr inbounds i8, ptr %s, i64 16
  %1 = load ptr, ptr %should_abort_on_uncaught_exception_callback, align 8
  %tobool3.not = icmp eq ptr %1, null
  %spec.select = select i1 %tobool3.not, ptr @_ZN4node30ShouldAbortOnUncaughtExceptionEPN2v87IsolateE, ptr %1
  tail call void @_ZN2v87Isolate35SetAbortOnUncaughtExceptionCallbackEPFbPS0_E(ptr noundef nonnull align 1 dereferenceable(1) %isolate, ptr noundef nonnull %spec.select) #12
  %fatal_error_callback = getelementptr inbounds i8, ptr %s, i64 24
  %2 = load ptr, ptr %fatal_error_callback, align 8
  %tobool5.not = icmp eq ptr %2, null
  %cond10 = select i1 %tobool5.not, ptr @_ZN4node12OnFatalErrorEPKcS1_, ptr %2
  tail call void @_ZN2v87Isolate20SetFatalErrorHandlerEPFvPKcS2_E(ptr noundef nonnull align 1 dereferenceable(1) %isolate, ptr noundef nonnull %cond10) #12
  tail call void @_ZN2v87Isolate18SetOOMErrorHandlerEPFvPKcRKNS_10OOMDetailsEE(ptr noundef nonnull align 1 dereferenceable(1) %isolate, ptr noundef nonnull @_ZN4node15OOMErrorHandlerEPKcRKN2v810OOMDetailsE) #12
  %3 = load i64, ptr %s, align 8
  %and12 = and i64 %3, 8
  %cmp = icmp eq i64 %and12, 0
  br i1 %cmp, label %if.then13, label %if.end20

if.then13:                                        ; preds = %if.end
  %prepare_stack_trace_callback = getelementptr inbounds i8, ptr %s, i64 32
  %4 = load ptr, ptr %prepare_stack_trace_callback, align 8
  %tobool14.not = icmp eq ptr %4, null
  %spec.select14 = select i1 %tobool14.not, ptr @_ZN4node25PrepareStackTraceCallbackEN2v85LocalINS0_7ContextEEENS1_INS0_5ValueEEENS1_INS0_5ArrayEEE, ptr %4
  tail call void @_ZN2v87Isolate28SetPrepareStackTraceCallbackEPFNS_10MaybeLocalINS_5ValueEEENS_5LocalINS_7ContextEEENS4_IS2_EENS4_INS_5ArrayEEEE(ptr noundef nonnull align 1 dereferenceable(1) %isolate, ptr noundef nonnull %spec.select14) #12
  br label %if.end20

if.end20:                                         ; preds = %if.then13, %if.end
  ret void
}